target datalayout = "e-m:e-p270:32:32-p271:32:32-p272:64:64-i64:64-i128:128-f80:128-n8:16:32:64-S128"
target triple = "x86_64-pc-linux-gnu"

%struct.GCRef = type { i64 }
%struct.CTState = type { ptr, i32, i32, ptr, ptr, ptr, %struct.CCallback, [128 x i16] }
%struct.CCallback = type { [8 x %union.FPRCBArg], [8 x i64], ptr, ptr, ptr, i32, i32, i32 }
%union.FPRCBArg = type { double }
%struct.GCstr = type { %struct.GCRef, i8, i8, i8, i8, i32, i32, i32 }

@lj_obj_itypename = external hidden constant [14 x ptr], align 16

; Function Attrs: noreturn nounwind uwtable
define internal void @cconv_err_convtv(ptr noundef %0, ptr noundef %1, ptr noundef %2, i32 noundef %3) #5 {
  %5 = alloca ptr, align 8
  %6 = alloca ptr, align 8
  %7 = alloca ptr, align 8
  %8 = alloca i32, align 4
  %9 = alloca ptr, align 8
  %10 = alloca ptr, align 8
  store ptr %0, ptr %5, align 8, !tbaa !4
  store ptr %1, ptr %6, align 8, !tbaa !9
  store ptr %2, ptr %7, align 8, !tbaa !43
  store i32 %3, ptr %8, align 4, !tbaa !11
  call void @llvm.lifetime.start.p0(i64 8, ptr %9) #9
  %11 = load ptr, ptr %5, align 8, !tbaa !4
  %12 = getelementptr inbounds nuw %struct.CTState, ptr %11, i32 0, i32 3
  %13 = load ptr, ptr %12, align 8, !tbaa !34
  %14 = load ptr, ptr %6, align 8, !tbaa !9
  %15 = load ptr, ptr %5, align 8, !tbaa !4
  %16 = getelementptr inbounds nuw %struct.CTState, ptr %15, i32 0, i32 0
  %17 = load ptr, ptr %16, align 8, !tbaa !42
  %18 = ptrtoint ptr %14 to i64
  %19 = ptrtoint ptr %17 to i64
  %20 = sub i64 %18, %19
  %21 = sdiv exact i64 %20, 24
  %22 = trunc i64 %21 to i32
  %23 = call ptr @lj_ctype_repr(ptr noundef %13, i32 noundef %22, ptr noundef null)
  %24 = getelementptr inbounds %struct.GCstr, ptr %23, i64 1
  store ptr %24, ptr %9, align 8, !tbaa !21
  call void @llvm.lifetime.start.p0(i64 8, ptr %10) #9
  %25 = load ptr, ptr %7, align 8, !tbaa !43
  %26 = load i64, ptr %25, align 8, !tbaa !23
  %27 = ashr i64 %26, 47
  %28 = trunc i64 %27 to i32
  %29 = icmp ule i32 %28, -14
  br i1 %29, label %30, label %31

30:                                               ; preds = %4
  br label %37

31:                                               ; preds = %4
  %32 = load ptr, ptr %7, align 8, !tbaa !43
  %33 = load i64, ptr %32, align 8, !tbaa !23
  %34 = ashr i64 %33, 47
  %35 = trunc i64 %34 to i32
  %36 = xor i32 %35, -1
  br label %37

37:                                               ; preds = %31, %30
  %38 = phi i32 [ 13, %30 ], [ %36, %31 ]
  %39 = zext i32 %38 to i64
  %40 = getelementptr inbounds nuw [14 x ptr], ptr @lj_obj_itypename, i64 0, i64 %39
  %41 = load ptr, ptr %40, align 8, !tbaa !21
  store ptr %41, ptr %10, align 8, !tbaa !21
  %42 = load i32, ptr %8, align 4, !tbaa !11
  %43 = lshr i32 %42, 8
  %44 = icmp ne i32 %43, 0
  br i1 %44, label %45, label %53

45:                                               ; preds = %37
  %46 = load ptr, ptr %5, align 8, !tbaa !4
  %47 = getelementptr inbounds nuw %struct.CTState, ptr %46, i32 0, i32 3
  %48 = load ptr, ptr %47, align 8, !tbaa !34
  %49 = load i32, ptr %8, align 4, !tbaa !11
  %50 = lshr i32 %49, 8
  %51 = load ptr, ptr %10, align 8, !tbaa !21
  %52 = load ptr, ptr %9, align 8, !tbaa !21
  call void (ptr, i32, i32, ...) @lj_err_argv(ptr noundef %48, i32 noundef %50, i32 noundef 3239, ptr noundef %51, ptr noundef %52) #10
  unreachable

53:                                               ; preds = %37
  %54 = load ptr, ptr %5, align 8, !tbaa !4
  %55 = getelementptr inbounds nuw %struct.CTState, ptr %54, i32 0, i32 3
  %56 = load ptr, ptr %55, align 8, !tbaa !34
  %57 = load ptr, ptr %10, align 8, !tbaa !21
  %58 = load ptr, ptr %9, align 8, !tbaa !21
  call void (ptr, i32, ...) @lj_err_callerv(ptr noundef %56, i32 noundef 3239, ptr noundef %57, ptr noundef %58) #10
  unreachable
}