; Function Attrs: noreturn nounwind uwtable
define internal fastcc void @cconv_err_convtv(ptr noundef readonly captures(none) %0, ptr noundef %1, ptr noundef readonly captures(none) %2, i32 noundef %3) unnamed_addr #5 {
  %5 = getelementptr inbounds nuw i8, ptr %0, i64 16
  %6 = load ptr, ptr %5, align 8, !tbaa !35
  %7 = load ptr, ptr %0, align 8, !tbaa !4
  %8 = ptrtoint ptr %1 to i64
  %9 = ptrtoint ptr %7 to i64
  %10 = sub i64 %8, %9
  %11 = sdiv exact i64 %10, 24
  %12 = trunc i64 %11 to i32
  %13 = tail call ptr @lj_ctype_repr(ptr noundef %6, i32 noundef %12, ptr noundef null) #9
  %14 = getelementptr inbounds nuw i8, ptr %13, i64 24
  %15 = load i64, ptr %2, align 8, !tbaa !23
  %16 = ashr i64 %15, 47
  %17 = tail call i64 @llvm.umax.i64(i64 %16, i64 -14)
  %spec.select = xor i64 %17, -1
  %18 = getelementptr inbounds nuw [14 x ptr], ptr @lj_obj_itypename, i64 0, i64 %spec.select
  %19 = load ptr, ptr %18, align 8, !tbaa !36
  %.not = icmp ult i32 %3, 256
  br i1 %.not, label %23, label %20

20:                                               ; preds = %4
  %21 = lshr i32 %3, 8
  %22 = load ptr, ptr %5, align 8, !tbaa !35
  tail call void (ptr, i32, i32, ...) @lj_err_argv(ptr noundef %22, i32 noundef %21, i32 noundef 3239, ptr noundef %19, ptr noundef nonnull %14) #11
  unreachable

23:                                               ; preds = %4
  %24 = load ptr, ptr %5, align 8, !tbaa !35
  tail call void (ptr, i32, ...) @lj_err_callerv(ptr noundef %24, i32 noundef 3239, ptr noundef %19, ptr noundef nonnull %14) #11
  unreachable
}